target datalayout = "e-m:e-p270:32:32-p271:32:32-p272:64:64-i64:64-i128:128-f80:128-n8:16:32:64-S128"
target triple = "x86_64-pc-linux-gnu"

%struct.strbuf = type { i64, i64, ptr }
%struct.key_value_info = type { ptr, i32, i32, i32, ptr }

@__const.fn_param_fl.buf_payload = private unnamed_addr constant %struct.strbuf { i64 0, i64 0, ptr @strbuf_slopbuf }, align 8
@.str.27 = private unnamed_addr constant [22 x i8] c"def_param scope:%s %s\00", align 1
@.str.28 = private unnamed_addr constant [4 x i8] c"=%s\00", align 1

; Function Attrs: nounwind uwtable
define internal void @fn_param_fl(ptr noundef %0, i32 noundef %1, ptr noundef %2, ptr noundef %3, ptr noundef %4) #0 {
  %6 = alloca ptr, align 8
  %7 = alloca i32, align 4
  %8 = alloca ptr, align 8
  %9 = alloca ptr, align 8
  %10 = alloca ptr, align 8
  %11 = alloca %struct.strbuf, align 8
  %12 = alloca i32, align 4
  %13 = alloca ptr, align 8
  store ptr %0, ptr %6, align 8, !tbaa !8
  store i32 %1, ptr %7, align 4, !tbaa !4
  store ptr %2, ptr %8, align 8, !tbaa !8
  store ptr %3, ptr %9, align 8, !tbaa !8
  store ptr %4, ptr %10, align 8, !tbaa !29
  call void @llvm.lifetime.start.p0(i64 24, ptr %11) #9
  call void @llvm.memcpy.p0.p0.i64(ptr align 8 %11, ptr align 8 @__const.fn_param_fl.buf_payload, i64 24, i1 false)
  call void @llvm.lifetime.start.p0(i64 4, ptr %12) #9
  %14 = load ptr, ptr %10, align 8, !tbaa !29
  %15 = getelementptr inbounds nuw %struct.key_value_info, ptr %14, i32 0, i32 3
  %16 = load i32, ptr %15, align 8, !tbaa !31
  store i32 %16, ptr %12, align 4, !tbaa !4
  call void @llvm.lifetime.start.p0(i64 8, ptr %13) #9
  %17 = load i32, ptr %12, align 4, !tbaa !4
  %18 = call ptr @config_scope_name(i32 noundef %17)
  store ptr %18, ptr %13, align 8, !tbaa !8
  %19 = load ptr, ptr %13, align 8, !tbaa !8
  %20 = load ptr, ptr %8, align 8, !tbaa !8
  call void (ptr, ptr, ...) @strbuf_addf(ptr noundef %11, ptr noundef @.str.27, ptr noundef %19, ptr noundef %20)
  %21 = load ptr, ptr %9, align 8, !tbaa !8
  %22 = icmp ne ptr %21, null
  br i1 %22, label %23, label %25

23:                                               ; preds = %5
  %24 = load ptr, ptr %9, align 8, !tbaa !8
  call void (ptr, ptr, ...) @strbuf_addf(ptr noundef %11, ptr noundef @.str.28, ptr noundef %24)
  br label %25

25:                                               ; preds = %23, %5
  %26 = load ptr, ptr %6, align 8, !tbaa !8
  %27 = load i32, ptr %7, align 4, !tbaa !4
  call void @normal_io_write_fl(ptr noundef %26, i32 noundef %27, ptr noundef %11)
  call void @strbuf_release(ptr noundef %11)
  call void @llvm.lifetime.end.p0(i64 8, ptr %13) #9
  call void @llvm.lifetime.end.p0(i64 4, ptr %12) #9
  call void @llvm.lifetime.end.p0(i64 24, ptr %11) #9
  ret void
}