; Function Attrs: nounwind uwtable
define internal void @fn_param_fl(ptr noundef %0, i32 noundef %1, ptr noundef %2, ptr noundef %3, ptr noundef readonly captures(none) %4) #0 {
  %6 = alloca %struct.strbuf, align 8
  call void @llvm.lifetime.start.p0(i64 24, ptr nonnull %6) #7
  call void @llvm.memcpy.p0.p0.i64(ptr noundef nonnull align 8 dereferenceable(24) %6, ptr noundef nonnull align 8 dereferenceable(24) @__const.fn_counter.buf_payload, i64 24, i1 false)
  %7 = getelementptr inbounds nuw i8, ptr %4, i64 16
  %8 = load i32, ptr %7, align 8, !tbaa !25
  %9 = tail call ptr @config_scope_name(i32 noundef %8) #7
  call void (ptr, ptr, ...) @strbuf_addf(ptr noundef nonnull %6, ptr noundef nonnull @.str.27, ptr noundef %9, ptr noundef %2) #7
  %.not = icmp eq ptr %3, null
  br i1 %.not, label %11, label %10

10:                                               ; preds = %5
  call void (ptr, ptr, ...) @strbuf_addf(ptr noundef nonnull %6, ptr noundef nonnull @.str.28, ptr noundef nonnull %3) #7
  br label %11

11:                                               ; preds = %10, %5
  call fastcc void @normal_io_write_fl(ptr noundef %0, i32 noundef %1, ptr noundef %6)
  call void @strbuf_release(ptr noundef nonnull %6) #7
  call void @llvm.lifetime.end.p0(i64 24, ptr nonnull %6) #7
  ret void
}